target datalayout = "e-m:e-p270:32:32-p271:32:32-p272:64:64-i64:64-i128:128-f80:128-n8:16:32:64-S128"
target triple = "x86_64-pc-linux-gnu"

%struct.btIndexedMesh = type <{ i32, [4 x i8], ptr, i32, i32, ptr, i32, i32, i32, [4 x i8] }>
%class.btStridingMeshInterface = type { ptr, %class.btVector3 }
%class.btAlignedObjectArray = type <{ [4 x i8], i32, i32, [4 x i8], ptr, i8, [7 x i8] }>
%class.btVector3 = type { [4 x float] }
%class.btTriangleIndexVertexArray = type <{ %class.btStridingMeshInterface, %class.btAlignedObjectArray, [2 x i32], i32, %class.btVector3, %class.btVector3, [4 x i8] }>

; Function Attrs: inlinehint mustprogress nounwind uwtable
define linkonce_odr dso_local noundef nonnull align 8 dereferenceable(44) ptr @_ZN20btAlignedObjectArrayI13btIndexedMeshEixEi(ptr noundef nonnull align 8 dereferenceable(25) %0, i32 noundef %1) #5 comdat align 2 {
  %3 = alloca ptr, align 8
  %4 = alloca i32, align 4
  store ptr %0, ptr %3, align 8, !tbaa !66
  store i32 %1, ptr %4, align 4, !tbaa !9
  %5 = load ptr, ptr %3, align 8
  %6 = getelementptr inbounds nuw %class.btAlignedObjectArray, ptr %5, i32 0, i32 4
  %7 = load ptr, ptr %6, align 8, !tbaa !68
  %8 = load i32, ptr %4, align 4, !tbaa !9
  %9 = sext i32 %8 to i64
  %10 = getelementptr inbounds %struct.btIndexedMesh, ptr %7, i64 %9
  ret ptr %10
}

; Function Attrs: mustprogress uwtable
define dso_local void @_ZN14btTriangleMesh18addTriangleIndicesEiii(ptr noundef nonnull align 8 dereferenceable(240) %0, i32 noundef %1, i32 noundef %2, i32 noundef %3) #2 align 2 {
  %5 = alloca ptr, align 8
  %6 = alloca i32, align 4
  %7 = alloca i32, align 4
  %8 = alloca i32, align 4
  store ptr %0, ptr %5, align 8, !tbaa !12
  store i32 %1, ptr %6, align 4, !tbaa !9
  store i32 %2, ptr %7, align 4, !tbaa !9
  store i32 %3, ptr %8, align 4, !tbaa !9
  %9 = load ptr, ptr %5, align 8
  %10 = getelementptr inbounds nuw %class.btTriangleIndexVertexArray, ptr %9, i32 0, i32 1
  %11 = call noundef nonnull align 8 dereferenceable(44) ptr @_ZN20btAlignedObjectArrayI13btIndexedMeshEixEi(ptr noundef nonnull align 8 dereferenceable(25) %10, i32 noundef 0)
  %12 = getelementptr inbounds nuw %struct.btIndexedMesh, ptr %11, i32 0, i32 0
  %13 = load i32, ptr %12, align 8, !tbaa !43
  %14 = add nsw i32 %13, 1
  store i32 %14, ptr %12, align 8, !tbaa !43
  %15 = load i32, ptr %6, align 4, !tbaa !9
  call void @_ZN14btTriangleMesh8addIndexEi(ptr noundef nonnull align 8 dereferenceable(240) %9, i32 noundef %15)
  %16 = load i32, ptr %7, align 4, !tbaa !9
  call void @_ZN14btTriangleMesh8addIndexEi(ptr noundef nonnull align 8 dereferenceable(240) %9, i32 noundef %16)
  %17 = load i32, ptr %8, align 4, !tbaa !9
  call void @_ZN14btTriangleMesh8addIndexEi(ptr noundef nonnull align 8 dereferenceable(240) %9, i32 noundef %17)
  ret void
}