; Function Attrs: mustprogress uwtable
define dso_local void @_ZN14btTriangleMesh18addTriangleIndicesEiii(ptr noundef nonnull align 8 captures(none) dereferenceable(240) %0, i32 noundef %1, i32 noundef %2, i32 noundef %3) local_unnamed_addr #0 align 2 {
  %5 = getelementptr inbounds nuw i8, ptr %0, i64 40
  %6 = load ptr, ptr %5, align 8, !tbaa !15
  %7 = load i32, ptr %6, align 8, !tbaa !66
  %8 = add nsw i32 %7, 1
  store i32 %8, ptr %6, align 8, !tbaa !66
  tail call void @_ZN14btTriangleMesh8addIndexEi(ptr noundef nonnull align 8 dereferenceable(240) %0, i32 noundef %1)
  tail call void @_ZN14btTriangleMesh8addIndexEi(ptr noundef nonnull align 8 dereferenceable(240) %0, i32 noundef %2)
  tail call void @_ZN14btTriangleMesh8addIndexEi(ptr noundef nonnull align 8 dereferenceable(240) %0, i32 noundef %3)
  ret void
}